; Function Attrs: mustprogress uwtable
define void @_ZN13duckdb_brotli25BrotliDecoderStateCleanupEPNS_24BrotliDecoderStateStructE(ptr noundef captures(none) %0) local_unnamed_addr #0 {
  %2 = getelementptr inbounds nuw i8, ptr %0, i64 56
  %3 = load ptr, ptr %2, align 8, !tbaa !21
  %4 = getelementptr inbounds nuw i8, ptr %0, i64 64
  %5 = load ptr, ptr %4, align 8, !tbaa !22
  %6 = getelementptr inbounds nuw i8, ptr %0, i64 792
  %7 = load ptr, ptr %6, align 8, !tbaa !41
  tail call void %3(ptr noundef %5, ptr noundef %7)
  store ptr null, ptr %6, align 8, !tbaa !41
  %8 = load ptr, ptr %2, align 8, !tbaa !21
  %9 = load ptr, ptr %4, align 8, !tbaa !22
  %10 = getelementptr inbounds nuw i8, ptr %0, i64 784
  %11 = load ptr, ptr %10, align 8, !tbaa !42
  tail call void %8(ptr noundef %9, ptr noundef %11)
  store ptr null, ptr %10, align 8, !tbaa !42
  %12 = load ptr, ptr %2, align 8, !tbaa !21
  %13 = load ptr, ptr %4, align 8, !tbaa !22
  %14 = getelementptr inbounds nuw i8, ptr %0, i64 408
  %15 = load ptr, ptr %14, align 8, !tbaa !31
  tail call void %12(ptr noundef %13, ptr noundef %15)
  store ptr null, ptr %14, align 8, !tbaa !31
  %16 = load ptr, ptr %2, align 8, !tbaa !21
  %17 = load ptr, ptr %4, align 8, !tbaa !22
  %18 = getelementptr inbounds nuw i8, ptr %0, i64 184
  %19 = load ptr, ptr %18, align 8, !tbaa !43
  tail call void %16(ptr noundef %17, ptr noundef %19)
  store ptr null, ptr %18, align 8, !tbaa !43
  %20 = load ptr, ptr %2, align 8, !tbaa !21
  %21 = load ptr, ptr %4, align 8, !tbaa !22
  %22 = getelementptr inbounds nuw i8, ptr %0, i64 208
  %23 = load ptr, ptr %22, align 8, !tbaa !44
  tail call void %20(ptr noundef %21, ptr noundef %23)
  store ptr null, ptr %22, align 8, !tbaa !44
  %24 = load ptr, ptr %2, align 8, !tbaa !21
  %25 = load ptr, ptr %4, align 8, !tbaa !22
  %26 = getelementptr inbounds nuw i8, ptr %0, i64 232
  %27 = load ptr, ptr %26, align 8, !tbaa !45
  tail call void %24(ptr noundef %25, ptr noundef %27)
  store ptr null, ptr %26, align 8, !tbaa !45
  %28 = load ptr, ptr %2, align 8, !tbaa !21
  %29 = load ptr, ptr %4, align 8, !tbaa !22
  %30 = getelementptr inbounds nuw i8, ptr %0, i64 808
  %31 = load ptr, ptr %30, align 8, !tbaa !36
  tail call void %28(ptr noundef %29, ptr noundef %31)
  store ptr null, ptr %30, align 8, !tbaa !36
  %32 = getelementptr inbounds nuw i8, ptr %0, i64 800
  %33 = load ptr, ptr %32, align 8, !tbaa !37
  tail call void @_ZN13duckdb_brotli37BrotliSharedDictionaryDestroyInstanceEPNS_28BrotliSharedDictionaryStructE(ptr noundef %33)
  store ptr null, ptr %32, align 8, !tbaa !37
  %34 = load ptr, ptr %2, align 8, !tbaa !21
  %35 = load ptr, ptr %4, align 8, !tbaa !22
  %36 = getelementptr inbounds nuw i8, ptr %0, i64 136
  %37 = load ptr, ptr %36, align 8, !tbaa !28
  tail call void %34(ptr noundef %35, ptr noundef %37)
  store ptr null, ptr %36, align 8, !tbaa !28
  %38 = load ptr, ptr %2, align 8, !tbaa !21
  %39 = load ptr, ptr %4, align 8, !tbaa !22
  %40 = getelementptr inbounds nuw i8, ptr %0, i64 256
  %41 = load ptr, ptr %40, align 8, !tbaa !46
  tail call void %38(ptr noundef %39, ptr noundef %41)
  store ptr null, ptr %40, align 8, !tbaa !46
  ret void
}